
watchdog_tiny.elf:     file format elf32-avr

Sections:
Idx Name          Size      VMA       LMA       File off  Algn
  0 .text         000007f4  00000000  00000000  00000094  2**1
                  CONTENTS, ALLOC, LOAD, READONLY, CODE
  1 .data         0000000a  00800060  000007f4  00000888  2**0
                  CONTENTS, ALLOC, LOAD, DATA
  2 .bss          00000059  0080006a  0080006a  00000892  2**0
                  ALLOC
  3 .comment      00000030  00000000  00000000  00000892  2**0
                  CONTENTS, READONLY
  4 .note.gnu.avr.deviceinfo 00000040  00000000  00000000  000008c4  2**2
                  CONTENTS, READONLY
  5 .debug_aranges 00000290  00000000  00000000  00000908  2**3
                  CONTENTS, READONLY, DEBUGGING
  6 .debug_info   0000246d  00000000  00000000  00000b98  2**0
                  CONTENTS, READONLY, DEBUGGING
  7 .debug_abbrev 00001094  00000000  00000000  00003005  2**0
                  CONTENTS, READONLY, DEBUGGING
  8 .debug_line   00001534  00000000  00000000  00004099  2**0
                  CONTENTS, READONLY, DEBUGGING
  9 .debug_frame  00000528  00000000  00000000  000055d0  2**2
                  CONTENTS, READONLY, DEBUGGING
 10 .debug_str    00000745  00000000  00000000  00005af8  2**0
                  CONTENTS, READONLY, DEBUGGING
 11 .debug_loc    000011fb  00000000  00000000  0000623d  2**0
                  CONTENTS, READONLY, DEBUGGING
 12 .debug_ranges 000001e8  00000000  00000000  00007438  2**0
                  CONTENTS, READONLY, DEBUGGING

Disassembly of section .text:

00000000 <__vectors>:
   0:	4a c0       	rjmp	.+148    	; 0x96 <__ctors_end>
   2:	62 c0       	rjmp	.+196    	; 0xc8 <__bad_interrupt>
   4:	61 c0       	rjmp	.+194    	; 0xc8 <__bad_interrupt>
   6:	60 c0       	rjmp	.+192    	; 0xc8 <__bad_interrupt>
   8:	67 c2       	rjmp	.+1230   	; 0x4d8 <__vector_4>
   a:	5e c0       	rjmp	.+188    	; 0xc8 <__bad_interrupt>
   c:	5d c0       	rjmp	.+186    	; 0xc8 <__bad_interrupt>
   e:	88 c2       	rjmp	.+1296   	; 0x520 <__vector_7>
  10:	af c2       	rjmp	.+1374   	; 0x570 <__vector_8>
  12:	5a c0       	rjmp	.+180    	; 0xc8 <__bad_interrupt>
  14:	59 c0       	rjmp	.+178    	; 0xc8 <__bad_interrupt>
  16:	58 c0       	rjmp	.+176    	; 0xc8 <__bad_interrupt>
  18:	57 c0       	rjmp	.+174    	; 0xc8 <__bad_interrupt>
  1a:	56 c0       	rjmp	.+172    	; 0xc8 <__bad_interrupt>
  1c:	55 c0       	rjmp	.+170    	; 0xc8 <__bad_interrupt>
  1e:	54 c0       	rjmp	.+168    	; 0xc8 <__bad_interrupt>
  20:	53 c0       	rjmp	.+166    	; 0xc8 <__bad_interrupt>
  22:	52 c0       	rjmp	.+164    	; 0xc8 <__bad_interrupt>
  24:	51 c0       	rjmp	.+162    	; 0xc8 <__bad_interrupt>

00000026 <__trampolines_end>:
  26:	58 02       	muls	r21, r24

00000028 <sys_func_names>:
  28:	34 00 2c 00                                         4.,.

0000002c <funcname3>:
  2c:	72 65 73 74 61 72 74 00                             restart.

00000034 <funcname2>:
  34:	77 64 00                                            wd.

00000037 <wd_help>:
  37:	77 64 20 5b 72 73 74 7c 73 65 74 20 3c 73 65 63     wd [rst|set <sec
  47:	3e 5d 0d 0a 09 72 73 74 09 20 2d 20 72 65 73 65     >]...rst. - rese
  57:	74 20 77 64 20 74 69 6d 65 72 0d 0a 09 73 65 74     t wd timer...set
  67:	20 3c 73 65 63 3e 09 20 2d 20 28 30 20 2d 20 74      <sec>. - (0 - t
  77:	75 72 6e 20 6f 66 66 20 74 69 6d 65 72 29 0d 0a     urn off timer)..
	...

00000088 <pgm_newline>:
  88:	0d 0a 00                                            ...

0000008b <pgm_error>:
  8b:	65 72 72 0d 0a 00                                   err...

00000091 <pgm_ok>:
  91:	6f 6b 0d 0a 00                                      ok...

00000096 <__ctors_end>:
  96:	11 24       	eor	r1, r1
  98:	1f be       	out	0x3f, r1	; 63
  9a:	cf ed       	ldi	r28, 0xDF	; 223
  9c:	cd bf       	out	0x3d, r28	; 61

0000009e <__do_copy_data>:
  9e:	10 e0       	ldi	r17, 0x00	; 0
  a0:	a0 e6       	ldi	r26, 0x60	; 96
  a2:	b0 e0       	ldi	r27, 0x00	; 0
  a4:	e4 ef       	ldi	r30, 0xF4	; 244
  a6:	f7 e0       	ldi	r31, 0x07	; 7
  a8:	02 c0       	rjmp	.+4      	; 0xae <__do_copy_data+0x10>
  aa:	05 90       	lpm	r0, Z+
  ac:	0d 92       	st	X+, r0
  ae:	aa 36       	cpi	r26, 0x6A	; 106
  b0:	b1 07       	cpc	r27, r17
  b2:	d9 f7       	brne	.-10     	; 0xaa <__do_copy_data+0xc>

000000b4 <__do_clear_bss>:
  b4:	20 e0       	ldi	r18, 0x00	; 0
  b6:	aa e6       	ldi	r26, 0x6A	; 106
  b8:	b0 e0       	ldi	r27, 0x00	; 0
  ba:	01 c0       	rjmp	.+2      	; 0xbe <.do_clear_bss_start>

000000bc <.do_clear_bss_loop>:
  bc:	1d 92       	st	X+, r1

000000be <.do_clear_bss_start>:
  be:	a3 3c       	cpi	r26, 0xC3	; 195
  c0:	b2 07       	cpc	r27, r18
  c2:	e1 f7       	brne	.-8      	; 0xbc <.do_clear_bss_loop>
  c4:	03 d2       	rcall	.+1030   	; 0x4cc <main>
  c6:	94 c3       	rjmp	.+1832   	; 0x7f0 <_exit>

000000c8 <__bad_interrupt>:
  c8:	9b cf       	rjmp	.-202    	; 0x0 <__vectors>

000000ca <relay_on>:
	relay_off();
}

void relay_on(void)
{
	sbit(RELAY_PORT, RELAY_PIN);
  ca:	95 9a       	sbi	0x12, 5	; 18
  cc:	08 95       	ret

000000ce <relay_blink>:
	cbit(RELAY_PORT, RELAY_PIN);
}

void relay_blink(void)
{
	relay_on();
  ce:	fd df       	rcall	.-6      	; 0xca <relay_on>
	AddTimerTask(_relay_blink_off, RELAY_CYCLE_MS, false);
  d0:	40 e0       	ldi	r20, 0x00	; 0
  d2:	68 ee       	ldi	r22, 0xE8	; 232
  d4:	73 e0       	ldi	r23, 0x03	; 3
  d6:	88 e8       	ldi	r24, 0x88	; 136
  d8:	90 e0       	ldi	r25, 0x00	; 0
  da:	c3 c2       	rjmp	.+1414   	; 0x662 <AddTimerTask>

000000dc <relay_off>:
	sbit(RELAY_PORT, RELAY_PIN);
}

void relay_off(void)
{
	cbit(RELAY_PORT, RELAY_PIN);
  dc:	95 98       	cbi	0x12, 5	; 18
  de:	08 95       	ret

000000e0 <relay_init>:

const uint16_t wd_timeout_eemem PROGMEM = 600;

void relay_init(void)
{
	main_watchdog_timeout_s = eeprom_read_word(&wd_timeout_eemem);
  e0:	86 e2       	ldi	r24, 0x26	; 38
  e2:	90 e0       	ldi	r25, 0x00	; 0
  e4:	64 d3       	rcall	.+1736   	; 0x7ae <eeprom_read_word>
  e6:	90 93 8f 00 	sts	0x008F, r25	; 0x80008f <main_watchdog_timeout_s+0x1>
  ea:	80 93 8e 00 	sts	0x008E, r24	; 0x80008e <main_watchdog_timeout_s>
	sbit(RELAY_DDR, RELAY_PIN);
  ee:	8d 9a       	sbi	0x11, 5	; 17
	relay_off();
  f0:	f5 cf       	rjmp	.-22     	; 0xdc <relay_off>

000000f2 <relay_start_watch>:
	relay_start_watch();
}

void relay_start_watch(void)
{
	if (main_watchdog_timeout_s != 0)
  f2:	80 91 8e 00 	lds	r24, 0x008E	; 0x80008e <main_watchdog_timeout_s>
  f6:	90 91 8f 00 	lds	r25, 0x008F	; 0x80008f <main_watchdog_timeout_s+0x1>
  fa:	00 97       	sbiw	r24, 0x00	; 0
  fc:	41 f0       	breq	.+16     	; 0x10e <relay_start_watch+0x1c>
	{
		AddTimerTask(relay_blink, main_watchdog_timeout_s * 1000, true);
  fe:	68 ee       	ldi	r22, 0xE8	; 232
 100:	73 e0       	ldi	r23, 0x03	; 3
 102:	44 d3       	rcall	.+1672   	; 0x78c <__mulhi3>
 104:	41 e0       	ldi	r20, 0x01	; 1
 106:	bc 01       	movw	r22, r24
 108:	87 e6       	ldi	r24, 0x67	; 103
 10a:	90 e0       	ldi	r25, 0x00	; 0
 10c:	aa c2       	rjmp	.+1364   	; 0x662 <AddTimerTask>
 10e:	08 95       	ret

00000110 <_relay_blink_off>:
	AddTimerTask(_relay_blink_off, RELAY_CYCLE_MS, false);
}

void _relay_blink_off(void)
{
	relay_off();
 110:	e5 df       	rcall	.-54     	; 0xdc <relay_off>
	relay_start_watch();
 112:	ef cf       	rjmp	.-34     	; 0xf2 <relay_start_watch>

00000114 <relay_set_timeout>:
	}
}

void relay_set_timeout(uint16_t new_val)
{
	eeprom_write_word(&wd_timeout_eemem, new_val);
 114:	bc 01       	movw	r22, r24
 116:	86 e2       	ldi	r24, 0x26	; 38
 118:	90 e0       	ldi	r25, 0x00	; 0
 11a:	4c d3       	rcall	.+1688   	; 0x7b4 <eeprom_write_word>
	relay_init();
 11c:	e1 cf       	rjmp	.-62     	; 0xe0 <relay_init>

0000011e <restart>:
__attribute__ ((__always_inline__))
void wdt_enable (const uint8_t value)
{
	if (_SFR_IO_REG_P (_WD_CONTROL_REG))
	{
		__asm__ __volatile__ (
 11e:	98 e0       	ldi	r25, 0x08	; 8
 120:	88 e1       	ldi	r24, 0x18	; 24
 122:	0f b6       	in	r0, 0x3f	; 63
 124:	f8 94       	cli
 126:	a8 95       	wdr
 128:	81 bd       	out	0x21, r24	; 33
 12a:	0f be       	out	0x3f, r0	; 63
 12c:	91 bd       	out	0x21, r25	; 33


void restart(uint8_t * p_arg[], uint8_t num_args)
{
	wdt_enable(WDTO_15MS);
	while(1);
 12e:	ff cf       	rjmp	.-2      	; 0x12e <restart+0x10>

00000130 <print_wd_help>:

#endif

void print_wd_help(void)
{
	usart_pgm_send_string(wd_help);
 130:	87 e3       	ldi	r24, 0x37	; 55
 132:	90 e0       	ldi	r25, 0x00	; 0
 134:	79 d1       	rcall	.+754    	; 0x428 <usart_pgm_send_string>
	usart_send_string("Cur:");
 136:	84 e6       	ldi	r24, 0x64	; 100
 138:	90 e0       	ldi	r25, 0x00	; 0
 13a:	64 d1       	rcall	.+712    	; 0x404 <usart_send_string>
	usart_send_string(str_uint16_to_str(main_watchdog_timeout_s));
 13c:	80 91 8e 00 	lds	r24, 0x008E	; 0x80008e <main_watchdog_timeout_s>
 140:	90 91 8f 00 	lds	r25, 0x008F	; 0x80008f <main_watchdog_timeout_s+0x1>
 144:	0a d1       	rcall	.+532    	; 0x35a <str_uint16_to_str>
 146:	5e d1       	rcall	.+700    	; 0x404 <usart_send_string>
	new_line;
 148:	88 e8       	ldi	r24, 0x88	; 136
 14a:	90 e0       	ldi	r25, 0x00	; 0
 14c:	6d c1       	rjmp	.+730    	; 0x428 <usart_pgm_send_string>

0000014e <wd>:
	usart_send_string(msg);
	new_line;
}

void wd(uint8_t * p_arg[], uint8_t num_args)
{
 14e:	cf 93       	push	r28
 150:	df 93       	push	r29
	if (1 == num_args) // && str_equal_pgm(p_arg[0], msg_rst)) 
 152:	61 30       	cpi	r22, 0x01	; 1
 154:	19 f4       	brne	.+6      	; 0x15c <wd+0xe>
		relay_set_timeout(str_to_uint16(p_arg[1]));		
	} else
	{
		print_wd_help();
	}
}
 156:	df 91       	pop	r29
 158:	cf 91       	pop	r28

void wd(uint8_t * p_arg[], uint8_t num_args)
{
	if (1 == num_args) // && str_equal_pgm(p_arg[0], msg_rst)) 
	{
		relay_start_watch();
 15a:	cb cf       	rjmp	.-106    	; 0xf2 <relay_start_watch>
 15c:	ec 01       	movw	r28, r24
	} else if ((is_digit(p_arg[1][0])))
 15e:	ea 81       	ldd	r30, Y+2	; 0x02
 160:	fb 81       	ldd	r31, Y+3	; 0x03
 162:	80 81       	ld	r24, Z
 164:	87 d0       	rcall	.+270    	; 0x274 <is_digit>
 166:	88 23       	and	r24, r24
 168:	31 f0       	breq	.+12     	; 0x176 <wd+0x28>
	{
		relay_set_timeout(str_to_uint16(p_arg[1]));		
 16a:	8a 81       	ldd	r24, Y+2	; 0x02
 16c:	9b 81       	ldd	r25, Y+3	; 0x03
 16e:	c7 d0       	rcall	.+398    	; 0x2fe <str_to_uint16>
	} else
	{
		print_wd_help();
	}
}
 170:	df 91       	pop	r29
 172:	cf 91       	pop	r28
	if (1 == num_args) // && str_equal_pgm(p_arg[0], msg_rst)) 
	{
		relay_start_watch();
	} else if ((is_digit(p_arg[1][0])))
	{
		relay_set_timeout(str_to_uint16(p_arg[1]));		
 174:	cf cf       	rjmp	.-98     	; 0x114 <relay_set_timeout>
	} else
	{
		print_wd_help();
	}
}
 176:	df 91       	pop	r29
 178:	cf 91       	pop	r28
	} else if ((is_digit(p_arg[1][0])))
	{
		relay_set_timeout(str_to_uint16(p_arg[1]));		
	} else
	{
		print_wd_help();
 17a:	da cf       	rjmp	.-76     	; 0x130 <print_wd_help>

0000017c <split_args>:
uint8_t args_num;

//Splitting arguments with zeroes and putting their start
//addresses to array / storing their total number
void split_args(uint8_t* cmdline)
{
 17c:	ef 92       	push	r14
 17e:	ff 92       	push	r15
 180:	0f 93       	push	r16
 182:	1f 93       	push	r17
 184:	cf 93       	push	r28
 186:	df 93       	push	r29
    uint8_t i;

    args_num=0;
 188:	10 92 c2 00 	sts	0x00C2, r1	; 0x8000c2 <args_num>
 18c:	ec 01       	movw	r28, r24
 18e:	7c 01       	movw	r14, r24
 190:	84 e1       	ldi	r24, 0x14	; 20
 192:	e8 0e       	add	r14, r24
 194:	f1 1c       	adc	r15, r1
 196:	8e 01       	movw	r16, r28
    i=0;

    while ((i<MAX_CMD_LEN) && (cmdline[i]!=0) && (args_num<MAX_ARGS_NUM))
 198:	f8 01       	movw	r30, r16
 19a:	81 91       	ld	r24, Z+
 19c:	8f 01       	movw	r16, r30
 19e:	88 23       	and	r24, r24
 1a0:	f1 f0       	breq	.+60     	; 0x1de <split_args+0x62>
 1a2:	80 91 c2 00 	lds	r24, 0x00C2	; 0x8000c2 <args_num>
 1a6:	83 30       	cpi	r24, 0x03	; 3
 1a8:	d0 f4       	brcc	.+52     	; 0x1de <split_args+0x62>
    {
        i++;

        if ((is_regular_char(cmdline[i])) && (cmdline[i-1]==' '))
 1aa:	f8 01       	movw	r30, r16
 1ac:	80 81       	ld	r24, Z
 1ae:	4f d0       	rcall	.+158    	; 0x24e <is_regular_char>
 1b0:	88 23       	and	r24, r24
 1b2:	91 f0       	breq	.+36     	; 0x1d8 <split_args+0x5c>
 1b4:	f8 01       	movw	r30, r16
 1b6:	31 97       	sbiw	r30, 0x01	; 1
 1b8:	80 81       	ld	r24, Z
 1ba:	80 32       	cpi	r24, 0x20	; 32
 1bc:	69 f4       	brne	.+26     	; 0x1d8 <split_args+0x5c>
        {
            arg_ptr[args_num]=&(cmdline[i]);
 1be:	80 91 c2 00 	lds	r24, 0x00C2	; 0x8000c2 <args_num>
 1c2:	e8 2f       	mov	r30, r24
 1c4:	f0 e0       	ldi	r31, 0x00	; 0
 1c6:	ee 0f       	add	r30, r30
 1c8:	ff 1f       	adc	r31, r31
 1ca:	e4 54       	subi	r30, 0x44	; 68
 1cc:	ff 4f       	sbci	r31, 0xFF	; 255
 1ce:	11 83       	std	Z+1, r17	; 0x01
 1d0:	00 83       	st	Z, r16
            args_num++;
 1d2:	8f 5f       	subi	r24, 0xFF	; 255
 1d4:	80 93 c2 00 	sts	0x00C2, r24	; 0x8000c2 <args_num>
    uint8_t i;

    args_num=0;
    i=0;

    while ((i<MAX_CMD_LEN) && (cmdline[i]!=0) && (args_num<MAX_ARGS_NUM))
 1d8:	0e 15       	cp	r16, r14
 1da:	1f 05       	cpc	r17, r15
 1dc:	e9 f6       	brne	.-70     	; 0x198 <split_args+0x1c>
        }
    }

    for (i=0; i<MAX_CMD_LEN; i++)
    {
        if (cmdline[i]==' ')
 1de:	88 81       	ld	r24, Y
 1e0:	80 32       	cpi	r24, 0x20	; 32
 1e2:	09 f4       	brne	.+2      	; 0x1e6 <split_args+0x6a>
            cmdline[i]=0;
 1e4:	18 82       	st	Y, r1
 1e6:	21 96       	adiw	r28, 0x01	; 1
            arg_ptr[args_num]=&(cmdline[i]);
            args_num++;
        }
    }

    for (i=0; i<MAX_CMD_LEN; i++)
 1e8:	ce 15       	cp	r28, r14
 1ea:	df 05       	cpc	r29, r15
 1ec:	c1 f7       	brne	.-16     	; 0x1de <split_args+0x62>
    {
        if (cmdline[i]==' ')
            cmdline[i]=0;
    }
}
 1ee:	df 91       	pop	r29
 1f0:	cf 91       	pop	r28
 1f2:	1f 91       	pop	r17
 1f4:	0f 91       	pop	r16
 1f6:	ff 90       	pop	r15
 1f8:	ef 90       	pop	r14
 1fa:	08 95       	ret

000001fc <cmd_exec>:

//Extract and start appropriate fn
uint8_t cmd_exec(uint8_t *cmdline)
{
 1fc:	ef 92       	push	r14
 1fe:	ff 92       	push	r15
 200:	1f 93       	push	r17
 202:	cf 93       	push	r28
 204:	df 93       	push	r29
 206:	7c 01       	movw	r14, r24
    uint8_t i=0;

    split_args(cmdline);
 208:	b9 df       	rcall	.-142    	; 0x17c <split_args>
}

//Extract and start appropriate fn
uint8_t cmd_exec(uint8_t *cmdline)
{
    uint8_t i=0;
 20a:	10 e0       	ldi	r17, 0x00	; 0

    split_args(cmdline);

    while (!( str_equal_pgm( cmdline, (uint8_t *)pgm_read_word(&(sys_func_names[i])) ) ))
 20c:	c1 2f       	mov	r28, r17
 20e:	d0 e0       	ldi	r29, 0x00	; 0
 210:	cc 0f       	add	r28, r28
 212:	dd 1f       	adc	r29, r29
 214:	fe 01       	movw	r30, r28
 216:	e8 5d       	subi	r30, 0xD8	; 216
 218:	ff 4f       	sbci	r31, 0xFF	; 255
 21a:	65 91       	lpm	r22, Z+
 21c:	74 91       	lpm	r23, Z
 21e:	c7 01       	movw	r24, r14
 220:	46 d0       	rcall	.+140    	; 0x2ae <str_equal_pgm>
 222:	81 11       	cpse	r24, r1
 224:	04 c0       	rjmp	.+8      	; 0x22e <cmd_exec+0x32>
		//usart_pgm_send_string(pgm_read_word(&(sys_func_names[i])));
		//usart_send_string("\r\n");
		
        i++;

        if (i>=FUNC_NUM)
 226:	11 30       	cpi	r17, 0x01	; 1
 228:	61 f0       	breq	.+24     	; 0x242 <cmd_exec+0x46>
 22a:	11 e0       	ldi	r17, 0x01	; 1
 22c:	ef cf       	rjmp	.-34     	; 0x20c <cmd_exec+0x10>
            return 0;
        }
    }

    //((void (*)(uint8_t**,uint8_t))pgm_read_word(&(sys_func[i])))(arg_ptr,args_num);
	(sys_func[i])(arg_ptr, args_num);
 22e:	c0 5a       	subi	r28, 0xA0	; 160
 230:	df 4f       	sbci	r29, 0xFF	; 255
 232:	e8 81       	ld	r30, Y
 234:	f9 81       	ldd	r31, Y+1	; 0x01
 236:	60 91 c2 00 	lds	r22, 0x00C2	; 0x8000c2 <args_num>
 23a:	8c eb       	ldi	r24, 0xBC	; 188
 23c:	90 e0       	ldi	r25, 0x00	; 0
 23e:	09 95       	icall

	return 1;
 240:	81 e0       	ldi	r24, 0x01	; 1
}
 242:	df 91       	pop	r29
 244:	cf 91       	pop	r28
 246:	1f 91       	pop	r17
 248:	ff 90       	pop	r15
 24a:	ef 90       	pop	r14
 24c:	08 95       	ret

0000024e <is_regular_char>:
				sbit(result, i);
			}
		}
	}
	return result;
}
 24e:	98 2f       	mov	r25, r24
 250:	8f 7d       	andi	r24, 0xDF	; 223
 252:	81 54       	subi	r24, 0x41	; 65
 254:	8a 31       	cpi	r24, 0x1A	; 26
 256:	58 f0       	brcs	.+22     	; 0x26e <is_regular_char+0x20>
 258:	80 ed       	ldi	r24, 0xD0	; 208
 25a:	89 0f       	add	r24, r25
 25c:	8a 30       	cpi	r24, 0x0A	; 10
 25e:	38 f0       	brcs	.+14     	; 0x26e <is_regular_char+0x20>
 260:	81 e0       	ldi	r24, 0x01	; 1
 262:	9c 37       	cpi	r25, 0x7C	; 124
 264:	31 f0       	breq	.+12     	; 0x272 <is_regular_char+0x24>
 266:	96 32       	cpi	r25, 0x26	; 38
 268:	21 f0       	breq	.+8      	; 0x272 <is_regular_char+0x24>
 26a:	80 e0       	ldi	r24, 0x00	; 0
 26c:	08 95       	ret
 26e:	81 e0       	ldi	r24, 0x01	; 1
 270:	08 95       	ret
 272:	08 95       	ret

00000274 <is_digit>:
 274:	90 ed       	ldi	r25, 0xD0	; 208
 276:	98 0f       	add	r25, r24
 278:	81 e0       	ldi	r24, 0x01	; 1
 27a:	9a 30       	cpi	r25, 0x0A	; 10
 27c:	08 f0       	brcs	.+2      	; 0x280 <is_digit+0xc>
 27e:	80 e0       	ldi	r24, 0x00	; 0
 280:	08 95       	ret

00000282 <str_len>:
 282:	9c 01       	movw	r18, r24
 284:	80 e0       	ldi	r24, 0x00	; 0
 286:	f9 01       	movw	r30, r18
 288:	e8 0f       	add	r30, r24
 28a:	f1 1d       	adc	r31, r1
 28c:	90 81       	ld	r25, Z
 28e:	99 23       	and	r25, r25
 290:	11 f0       	breq	.+4      	; 0x296 <str_len+0x14>
 292:	8f 5f       	subi	r24, 0xFF	; 255
 294:	f8 cf       	rjmp	.-16     	; 0x286 <str_len+0x4>
 296:	08 95       	ret

00000298 <str_len_pgm>:
 298:	9c 01       	movw	r18, r24
 29a:	80 e0       	ldi	r24, 0x00	; 0
 29c:	f9 01       	movw	r30, r18
 29e:	e8 0f       	add	r30, r24
 2a0:	f1 1d       	adc	r31, r1
 2a2:	e4 91       	lpm	r30, Z
 2a4:	ee 23       	and	r30, r30
 2a6:	11 f0       	breq	.+4      	; 0x2ac <str_len_pgm+0x14>
 2a8:	8f 5f       	subi	r24, 0xFF	; 255
 2aa:	f8 cf       	rjmp	.-16     	; 0x29c <str_len_pgm+0x4>
 2ac:	08 95       	ret

000002ae <str_equal_pgm>:
 2ae:	ff 92       	push	r15
 2b0:	0f 93       	push	r16
 2b2:	1f 93       	push	r17
 2b4:	cf 93       	push	r28
 2b6:	df 93       	push	r29
 2b8:	c8 2f       	mov	r28, r24
 2ba:	19 2f       	mov	r17, r25
 2bc:	f6 2e       	mov	r15, r22
 2be:	07 2f       	mov	r16, r23
 2c0:	e0 df       	rcall	.-64     	; 0x282 <str_len>
 2c2:	d8 2f       	mov	r29, r24
 2c4:	8f 2d       	mov	r24, r15
 2c6:	90 2f       	mov	r25, r16
 2c8:	e7 df       	rcall	.-50     	; 0x298 <str_len_pgm>
 2ca:	d8 13       	cpse	r29, r24
 2cc:	11 c0       	rjmp	.+34     	; 0x2f0 <str_equal_pgm+0x42>
 2ce:	9c 2f       	mov	r25, r28
 2d0:	ef 2d       	mov	r30, r15
 2d2:	f0 2f       	mov	r31, r16
 2d4:	ac 2f       	mov	r26, r28
 2d6:	b1 2f       	mov	r27, r17
 2d8:	8a 2f       	mov	r24, r26
 2da:	89 1b       	sub	r24, r25
 2dc:	8d 17       	cp	r24, r29
 2de:	30 f4       	brcc	.+12     	; 0x2ec <str_equal_pgm+0x3e>
 2e0:	2d 91       	ld	r18, X+
 2e2:	84 91       	lpm	r24, Z
 2e4:	31 96       	adiw	r30, 0x01	; 1
 2e6:	28 17       	cp	r18, r24
 2e8:	b9 f3       	breq	.-18     	; 0x2d8 <str_equal_pgm+0x2a>
 2ea:	02 c0       	rjmp	.+4      	; 0x2f0 <str_equal_pgm+0x42>
 2ec:	81 e0       	ldi	r24, 0x01	; 1
 2ee:	01 c0       	rjmp	.+2      	; 0x2f2 <str_equal_pgm+0x44>
 2f0:	80 e0       	ldi	r24, 0x00	; 0
 2f2:	df 91       	pop	r29
 2f4:	cf 91       	pop	r28
 2f6:	1f 91       	pop	r17
 2f8:	0f 91       	pop	r16
 2fa:	ff 90       	pop	r15
 2fc:	08 95       	ret

000002fe <str_to_uint16>:
 2fe:	0f 93       	push	r16
 300:	1f 93       	push	r17
 302:	cf 93       	push	r28
 304:	df 93       	push	r29
 306:	8c 01       	movw	r16, r24
 308:	20 e0       	ldi	r18, 0x00	; 0
 30a:	f8 01       	movw	r30, r16
 30c:	e2 0f       	add	r30, r18
 30e:	f1 1d       	adc	r31, r1
 310:	90 81       	ld	r25, Z
 312:	90 53       	subi	r25, 0x30	; 48
 314:	9a 30       	cpi	r25, 0x0A	; 10
 316:	10 f4       	brcc	.+4      	; 0x31c <str_to_uint16+0x1e>
 318:	2f 5f       	subi	r18, 0xFF	; 255
 31a:	f7 cf       	rjmp	.-18     	; 0x30a <str_to_uint16+0xc>
 31c:	a1 e0       	ldi	r26, 0x01	; 1
 31e:	b0 e0       	ldi	r27, 0x00	; 0
 320:	e0 e0       	ldi	r30, 0x00	; 0
 322:	f0 e0       	ldi	r31, 0x00	; 0
 324:	22 23       	and	r18, r18
 326:	99 f0       	breq	.+38     	; 0x34e <str_to_uint16+0x50>
 328:	e8 01       	movw	r28, r16
 32a:	c2 0f       	add	r28, r18
 32c:	d1 1d       	adc	r29, r1
 32e:	21 97       	sbiw	r28, 0x01	; 1
 330:	48 81       	ld	r20, Y
 332:	84 2f       	mov	r24, r20
 334:	90 e0       	ldi	r25, 0x00	; 0
 336:	c0 97       	sbiw	r24, 0x30	; 48
 338:	bd 01       	movw	r22, r26
 33a:	28 d2       	rcall	.+1104   	; 0x78c <__mulhi3>
 33c:	e8 0f       	add	r30, r24
 33e:	f9 1f       	adc	r31, r25
 340:	cd 01       	movw	r24, r26
 342:	6a e0       	ldi	r22, 0x0A	; 10
 344:	70 e0       	ldi	r23, 0x00	; 0
 346:	22 d2       	rcall	.+1092   	; 0x78c <__mulhi3>
 348:	dc 01       	movw	r26, r24
 34a:	21 50       	subi	r18, 0x01	; 1
 34c:	eb cf       	rjmp	.-42     	; 0x324 <str_to_uint16+0x26>
 34e:	cf 01       	movw	r24, r30
 350:	df 91       	pop	r29
 352:	cf 91       	pop	r28
 354:	1f 91       	pop	r17
 356:	0f 91       	pop	r16
 358:	08 95       	ret

0000035a <str_uint16_to_str>:
	char str[len+1];
	str[len] = '\0';
	for(i=(len-1); i>=0; i--){
		str[i] = '0' + num % 10;
		num /= 10;
	}
 35a:	ff cf       	rjmp	.-2      	; 0x35a <str_uint16_to_str>

0000035c <usart_init>:
void usart_send_char_hard(char ch)
{
	// Wait for empty transmit buffer
	while ( !( UCSRA & (1<<UDRE)) );
	// Put data into buffer, sends the data
	UDR = ch;
 35c:	82 ec       	ldi	r24, 0xC2	; 194
 35e:	82 b9       	out	0x02, r24	; 2
 360:	19 b8       	out	0x09, r1	; 9
 362:	82 e0       	ldi	r24, 0x02	; 2
 364:	8b b9       	out	0x0b, r24	; 11
 366:	88 e1       	ldi	r24, 0x18	; 24
 368:	8a b9       	out	0x0a, r24	; 10
 36a:	8e e0       	ldi	r24, 0x0E	; 14
 36c:	83 b9       	out	0x03, r24	; 3
 36e:	08 95       	ret

00000370 <usart_tx_interrupt>:
 370:	e0 91 a4 00 	lds	r30, 0x00A4	; 0x8000a4 <Tx_buffer+0x14>
 374:	80 91 a5 00 	lds	r24, 0x00A5	; 0x8000a5 <Tx_buffer+0x15>
 378:	e8 13       	cpse	r30, r24
 37a:	02 c0       	rjmp	.+4      	; 0x380 <usart_tx_interrupt+0x10>
 37c:	55 98       	cbi	0x0a, 5	; 10
 37e:	08 95       	ret
 380:	81 e0       	ldi	r24, 0x01	; 1
 382:	8e 0f       	add	r24, r30
 384:	80 93 a4 00 	sts	0x00A4, r24	; 0x8000a4 <Tx_buffer+0x14>
 388:	e3 71       	andi	r30, 0x13	; 19
 38a:	f0 e0       	ldi	r31, 0x00	; 0
 38c:	e0 57       	subi	r30, 0x70	; 112
 38e:	ff 4f       	sbci	r31, 0xFF	; 255
 390:	80 81       	ld	r24, Z
 392:	8c b9       	out	0x0c, r24	; 12
 394:	08 95       	ret

00000396 <usart_check_tx_buffer>:
 396:	90 91 a4 00 	lds	r25, 0x00A4	; 0x8000a4 <Tx_buffer+0x14>
 39a:	80 91 a5 00 	lds	r24, 0x00A5	; 0x8000a5 <Tx_buffer+0x15>
 39e:	98 13       	cpse	r25, r24
 3a0:	55 9a       	sbi	0x0a, 5	; 10
 3a2:	08 95       	ret

000003a4 <usart_send_char>:
 3a4:	90 91 a5 00 	lds	r25, 0x00A5	; 0x8000a5 <Tx_buffer+0x15>
 3a8:	29 2f       	mov	r18, r25
 3aa:	30 e0       	ldi	r19, 0x00	; 0
 3ac:	40 91 a4 00 	lds	r20, 0x00A4	; 0x8000a4 <Tx_buffer+0x14>
 3b0:	24 1b       	sub	r18, r20
 3b2:	31 09       	sbc	r19, r1
 3b4:	24 31       	cpi	r18, 0x14	; 20
 3b6:	31 05       	cpc	r19, r1
 3b8:	51 f0       	breq	.+20     	; 0x3ce <usart_send_char+0x2a>
 3ba:	e9 2f       	mov	r30, r25
 3bc:	e3 71       	andi	r30, 0x13	; 19
 3be:	f0 e0       	ldi	r31, 0x00	; 0
 3c0:	e0 57       	subi	r30, 0x70	; 112
 3c2:	ff 4f       	sbci	r31, 0xFF	; 255
 3c4:	80 83       	st	Z, r24
 3c6:	9f 5f       	subi	r25, 0xFF	; 255
 3c8:	90 93 a5 00 	sts	0x00A5, r25	; 0x8000a5 <Tx_buffer+0x15>
 3cc:	55 9a       	sbi	0x0a, 5	; 10
 3ce:	08 95       	ret

000003d0 <usart_rx_interrupt>:
 3d0:	cf 93       	push	r28
 3d2:	cc b1       	in	r28, 0x0c	; 12
 3d4:	8c 2f       	mov	r24, r28
 3d6:	e6 df       	rcall	.-52     	; 0x3a4 <usart_send_char>
 3d8:	90 91 bb 00 	lds	r25, 0x00BB	; 0x8000bb <Rx_buffer+0x15>
 3dc:	c8 30       	cpi	r28, 0x08	; 8
 3de:	31 f4       	brne	.+12     	; 0x3ec <usart_rx_interrupt+0x1c>
 3e0:	80 91 ba 00 	lds	r24, 0x00BA	; 0x8000ba <Rx_buffer+0x14>
 3e4:	89 17       	cp	r24, r25
 3e6:	59 f0       	breq	.+22     	; 0x3fe <usart_rx_interrupt+0x2e>
 3e8:	91 50       	subi	r25, 0x01	; 1
 3ea:	07 c0       	rjmp	.+14     	; 0x3fa <usart_rx_interrupt+0x2a>
 3ec:	e9 2f       	mov	r30, r25
 3ee:	e3 71       	andi	r30, 0x13	; 19
 3f0:	f0 e0       	ldi	r31, 0x00	; 0
 3f2:	ea 55       	subi	r30, 0x5A	; 90
 3f4:	ff 4f       	sbci	r31, 0xFF	; 255
 3f6:	c0 83       	st	Z, r28
 3f8:	9f 5f       	subi	r25, 0xFF	; 255
 3fa:	90 93 bb 00 	sts	0x00BB, r25	; 0x8000bb <Rx_buffer+0x15>
 3fe:	8c 2f       	mov	r24, r28
 400:	cf 91       	pop	r28
 402:	08 95       	ret

00000404 <usart_send_string>:
 404:	0f 93       	push	r16
 406:	1f 93       	push	r17
 408:	cf 93       	push	r28
 40a:	8c 01       	movw	r16, r24
 40c:	c0 e0       	ldi	r28, 0x00	; 0
 40e:	f8 01       	movw	r30, r16
 410:	ec 0f       	add	r30, r28
 412:	f1 1d       	adc	r31, r1
 414:	80 81       	ld	r24, Z
 416:	88 23       	and	r24, r24
 418:	19 f0       	breq	.+6      	; 0x420 <usart_send_string+0x1c>
 41a:	c4 df       	rcall	.-120    	; 0x3a4 <usart_send_char>
 41c:	cf 5f       	subi	r28, 0xFF	; 255
 41e:	f7 cf       	rjmp	.-18     	; 0x40e <usart_send_string+0xa>
 420:	cf 91       	pop	r28
 422:	1f 91       	pop	r17
 424:	0f 91       	pop	r16
 426:	b7 cf       	rjmp	.-146    	; 0x396 <usart_check_tx_buffer>

00000428 <usart_pgm_send_string>:
}

void usart_pgm_send_string(const uint8_t* pgm_msg)
{
 428:	1f 93       	push	r17
 42a:	cf 93       	push	r28
 42c:	df 93       	push	r29
	ATOMIC_BLOCK(ATOMIC_RESTORESTATE)
 42e:	1f b7       	in	r17, 0x3f	; 63
    return 1;
}

static __inline__ uint8_t __iCliRetVal(void)
{
    cli();
 430:	f8 94       	cli
 432:	ec 01       	movw	r28, r24
	{
		uint16_t	i=0;
		uint8_t	ch;
		do
		{
			ch=pgm_read_byte(&(pgm_msg[i]));
 434:	fe 01       	movw	r30, r28
 436:	84 91       	lpm	r24, Z
 438:	21 96       	adiw	r28, 0x01	; 1
			i++;

			if (ch)
 43a:	88 23       	and	r24, r24
 43c:	11 f0       	breq	.+4      	; 0x442 <usart_pgm_send_string+0x1a>
			{
				usart_send_char(ch);
 43e:	b2 df       	rcall	.-156    	; 0x3a4 <usart_send_char>
 440:	f9 cf       	rjmp	.-14     	; 0x434 <usart_pgm_send_string+0xc>
    (void)__s;
}

static __inline__ void __iRestore(const  uint8_t *__s)
{
    SREG = *__s;
 442:	1f bf       	out	0x3f, r17	; 63
			}
		} while (ch!=0);
	}
 444:	df 91       	pop	r29
 446:	cf 91       	pop	r28
 448:	1f 91       	pop	r17
 44a:	08 95       	ret

0000044c <execute_command>:
 44c:	cf 93       	push	r28
 44e:	df 93       	push	r29
 450:	cd b7       	in	r28, 0x3d	; 61
 452:	dd 27       	eor	r29, r29
 454:	c5 51       	subi	r28, 0x15	; 21
 456:	cd bf       	out	0x3d, r28	; 61
 458:	9e df       	rcall	.-196    	; 0x396 <usart_check_tx_buffer>
 45a:	50 91 bb 00 	lds	r21, 0x00BB	; 0x8000bb <Rx_buffer+0x15>
 45e:	20 91 ba 00 	lds	r18, 0x00BA	; 0x8000ba <Rx_buffer+0x14>
 462:	30 e0       	ldi	r19, 0x00	; 0
 464:	83 2f       	mov	r24, r19
 466:	90 e0       	ldi	r25, 0x00	; 0
 468:	25 17       	cp	r18, r21
 46a:	a1 f0       	breq	.+40     	; 0x494 <execute_command+0x48>
 46c:	e2 2f       	mov	r30, r18
 46e:	e3 71       	andi	r30, 0x13	; 19
 470:	f0 e0       	ldi	r31, 0x00	; 0
 472:	ea 55       	subi	r30, 0x5A	; 90
 474:	ff 4f       	sbci	r31, 0xFF	; 255
 476:	40 81       	ld	r20, Z
 478:	e1 e0       	ldi	r30, 0x01	; 1
 47a:	f0 e0       	ldi	r31, 0x00	; 0
 47c:	ec 0f       	add	r30, r28
 47e:	fd 1f       	adc	r31, r29
 480:	e8 0f       	add	r30, r24
 482:	f9 1f       	adc	r31, r25
 484:	40 83       	st	Z, r20
 486:	4a 30       	cpi	r20, 0x0A	; 10
 488:	19 f0       	breq	.+6      	; 0x490 <execute_command+0x44>
 48a:	4d 30       	cpi	r20, 0x0D	; 13
 48c:	09 f0       	breq	.+2      	; 0x490 <execute_command+0x44>
 48e:	3f 5f       	subi	r19, 0xFF	; 255
 490:	2f 5f       	subi	r18, 0xFF	; 255
 492:	e8 cf       	rjmp	.-48     	; 0x464 <execute_command+0x18>
 494:	20 93 ba 00 	sts	0x00BA, r18	; 0x8000ba <Rx_buffer+0x14>
 498:	e1 e0       	ldi	r30, 0x01	; 1
 49a:	f0 e0       	ldi	r31, 0x00	; 0
 49c:	ec 0f       	add	r30, r28
 49e:	fd 1f       	adc	r31, r29
 4a0:	e8 0f       	add	r30, r24
 4a2:	f9 1f       	adc	r31, r25
 4a4:	10 82       	st	Z, r1
 4a6:	ce 01       	movw	r24, r28
 4a8:	01 96       	adiw	r24, 0x01	; 1
 4aa:	a8 de       	rcall	.-688    	; 0x1fc <cmd_exec>
 4ac:	88 23       	and	r24, r24
 4ae:	19 f0       	breq	.+6      	; 0x4b6 <execute_command+0x6a>
 4b0:	81 e9       	ldi	r24, 0x91	; 145
 4b2:	90 e0       	ldi	r25, 0x00	; 0
 4b4:	02 c0       	rjmp	.+4      	; 0x4ba <execute_command+0x6e>
 4b6:	8b e8       	ldi	r24, 0x8B	; 139
 4b8:	90 e0       	ldi	r25, 0x00	; 0
 4ba:	b6 df       	rcall	.-148    	; 0x428 <usart_pgm_send_string>
 4bc:	cb 5e       	subi	r28, 0xEB	; 235
 4be:	cd bf       	out	0x3d, r28	; 61
 4c0:	df 91       	pop	r29
 4c2:	cf 91       	pop	r28
 4c4:	08 95       	ret

000004c6 <init>:
 4c6:	4a df       	rcall	.-364    	; 0x35c <usart_init>
 4c8:	87 d0       	rcall	.+270    	; 0x5d8 <rtos_init>
 4ca:	0a ce       	rjmp	.-1004   	; 0xe0 <relay_init>

000004cc <main>:
 4cc:	fc df       	rcall	.-8      	; 0x4c6 <init>
 4ce:	11 de       	rcall	.-990    	; 0xf2 <relay_start_watch>
 4d0:	78 94       	sei
 4d2:	fe d0       	rcall	.+508    	; 0x6d0 <TaskManager>
 4d4:	60 df       	rcall	.-320    	; 0x396 <usart_check_tx_buffer>
 4d6:	fd cf       	rjmp	.-6      	; 0x4d2 <main+0x6>

000004d8 <__vector_4>:
	}
}


ISR(RTOS_ISR)
{
 4d8:	1f 92       	push	r1
 4da:	0f 92       	push	r0
 4dc:	0f b6       	in	r0, 0x3f	; 63
 4de:	0f 92       	push	r0
 4e0:	11 24       	eor	r1, r1
 4e2:	2f 93       	push	r18
 4e4:	3f 93       	push	r19
 4e6:	4f 93       	push	r20
 4e8:	5f 93       	push	r21
 4ea:	6f 93       	push	r22
 4ec:	7f 93       	push	r23
 4ee:	8f 93       	push	r24
 4f0:	9f 93       	push	r25
 4f2:	af 93       	push	r26
 4f4:	bf 93       	push	r27
 4f6:	ef 93       	push	r30
 4f8:	ff 93       	push	r31
	sei();
 4fa:	78 94       	sei
	TimerService();
 4fc:	14 d1       	rcall	.+552    	; 0x726 <TimerService>
}
 4fe:	ff 91       	pop	r31
 500:	ef 91       	pop	r30
 502:	bf 91       	pop	r27
 504:	af 91       	pop	r26
 506:	9f 91       	pop	r25
 508:	8f 91       	pop	r24
 50a:	7f 91       	pop	r23
 50c:	6f 91       	pop	r22
 50e:	5f 91       	pop	r21
 510:	4f 91       	pop	r20
 512:	3f 91       	pop	r19
 514:	2f 91       	pop	r18
 516:	0f 90       	pop	r0
 518:	0f be       	out	0x3f, r0	; 63
 51a:	0f 90       	pop	r0
 51c:	1f 90       	pop	r1
 51e:	18 95       	reti

00000520 <__vector_7>:


ISR(USART_RX_vect)
{
 520:	1f 92       	push	r1
 522:	0f 92       	push	r0
 524:	0f b6       	in	r0, 0x3f	; 63
 526:	0f 92       	push	r0
 528:	11 24       	eor	r1, r1
 52a:	2f 93       	push	r18
 52c:	3f 93       	push	r19
 52e:	4f 93       	push	r20
 530:	5f 93       	push	r21
 532:	6f 93       	push	r22
 534:	7f 93       	push	r23
 536:	8f 93       	push	r24
 538:	9f 93       	push	r25
 53a:	af 93       	push	r26
 53c:	bf 93       	push	r27
 53e:	ef 93       	push	r30
 540:	ff 93       	push	r31
	uint8_t rx_byte = usart_rx_interrupt();
 542:	46 df       	rcall	.-372    	; 0x3d0 <usart_rx_interrupt>
	if (rx_byte == CHR_ENTER)
 544:	8d 30       	cpi	r24, 0x0D	; 13
 546:	19 f4       	brne	.+6      	; 0x54e <__vector_7+0x2e>
	{		
		AddTask(execute_command);
 548:	86 e2       	ldi	r24, 0x26	; 38
 54a:	92 e0       	ldi	r25, 0x02	; 2
 54c:	73 d0       	rcall	.+230    	; 0x634 <AddTask>
	}
}
 54e:	ff 91       	pop	r31
 550:	ef 91       	pop	r30
 552:	bf 91       	pop	r27
 554:	af 91       	pop	r26
 556:	9f 91       	pop	r25
 558:	8f 91       	pop	r24
 55a:	7f 91       	pop	r23
 55c:	6f 91       	pop	r22
 55e:	5f 91       	pop	r21
 560:	4f 91       	pop	r20
 562:	3f 91       	pop	r19
 564:	2f 91       	pop	r18
 566:	0f 90       	pop	r0
 568:	0f be       	out	0x3f, r0	; 63
 56a:	0f 90       	pop	r0
 56c:	1f 90       	pop	r1
 56e:	18 95       	reti

00000570 <__vector_8>:


ISR(USART_UDRE_vect)
{
 570:	1f 92       	push	r1
 572:	0f 92       	push	r0
 574:	0f b6       	in	r0, 0x3f	; 63
 576:	0f 92       	push	r0
 578:	11 24       	eor	r1, r1
 57a:	2f 93       	push	r18
 57c:	3f 93       	push	r19
 57e:	4f 93       	push	r20
 580:	5f 93       	push	r21
 582:	6f 93       	push	r22
 584:	7f 93       	push	r23
 586:	8f 93       	push	r24
 588:	9f 93       	push	r25
 58a:	af 93       	push	r26
 58c:	bf 93       	push	r27
 58e:	ef 93       	push	r30
 590:	ff 93       	push	r31
	usart_tx_interrupt();
 592:	ee de       	rcall	.-548    	; 0x370 <usart_tx_interrupt>
 594:	ff 91       	pop	r31
 596:	ef 91       	pop	r30
 598:	bf 91       	pop	r27
 59a:	af 91       	pop	r26
 59c:	9f 91       	pop	r25
 59e:	8f 91       	pop	r24
 5a0:	7f 91       	pop	r23
 5a2:	6f 91       	pop	r22
 5a4:	5f 91       	pop	r21
 5a6:	4f 91       	pop	r20
 5a8:	3f 91       	pop	r19
 5aa:	2f 91       	pop	r18
 5ac:	0f 90       	pop	r0
 5ae:	0f be       	out	0x3f, r0	; 63
 5b0:	0f 90       	pop	r0
 5b2:	1f 90       	pop	r1
 5b4:	18 95       	reti

000005b6 <Idle>:
}


// IDLE task
inline void  Idle(void)
{
 5b6:	08 95       	ret

000005b8 <rtos_timer_setup>:
}

//RTOS on system timer
inline void rtos_timer_setup (void)
{
	TCCR1A = (0<<COM1A1)|(0<<COM1A0)|(0<<COM1B1)|(0<<COM1B0)|(0<<WGM11)|(0<<WGM10);
 5b8:	1f bc       	out	0x2f, r1	; 47
	TCCR1B = (0<<ICNC1)|(0<<ICES1)|(0<<WGM13)|(1<<WGM12);
 5ba:	88 e0       	ldi	r24, 0x08	; 8
 5bc:	8e bd       	out	0x2e, r24	; 46
	// Clear Timer on Compare, Normal port operation
	
	TCCR1B |= (0<<CS12)|(1<<CS11)|(1<<CS10); // Freq = CK/64
 5be:	8e b5       	in	r24, 0x2e	; 46
 5c0:	83 60       	ori	r24, 0x03	; 3
 5c2:	8e bd       	out	0x2e, r24	; 46
	
	// Reset On Compare
	TCNT1 = 0;								// Counter start value
 5c4:	1d bc       	out	0x2d, r1	; 45
 5c6:	1c bc       	out	0x2c, r1	; 44
	OCR1A  = LO(TimerDivider); 				// Compare Register value
 5c8:	8d e7       	ldi	r24, 0x7D	; 125
 5ca:	90 e0       	ldi	r25, 0x00	; 0
 5cc:	9b bd       	out	0x2b, r25	; 43
 5ce:	8a bd       	out	0x2a, r24	; 42
	TIMSK |= 1<<OCIE1A;						// RTOS Interrupt Enable - Start OS
 5d0:	89 b7       	in	r24, 0x39	; 57
 5d2:	80 64       	ori	r24, 0x40	; 64
 5d4:	89 bf       	out	0x39, r24	; 57
 5d6:	08 95       	ret

000005d8 <rtos_init>:
{
	uint8_t	index;

	for(index = 0; index != MAX_TASKS_COUNT + 1; index++)	// Idle in all positions
	{
		TaskQueue[index] = Idle;
 5d8:	8b ed       	ldi	r24, 0xDB	; 219
 5da:	92 e0       	ldi	r25, 0x02	; 2
 5dc:	90 93 83 00 	sts	0x0083, r25	; 0x800083 <TaskQueue+0x1>
 5e0:	80 93 82 00 	sts	0x0082, r24	; 0x800082 <TaskQueue>
 5e4:	90 93 85 00 	sts	0x0085, r25	; 0x800085 <TaskQueue+0x3>
 5e8:	80 93 84 00 	sts	0x0084, r24	; 0x800084 <TaskQueue+0x2>
 5ec:	90 93 87 00 	sts	0x0087, r25	; 0x800087 <TaskQueue+0x5>
 5f0:	80 93 86 00 	sts	0x0086, r24	; 0x800086 <TaskQueue+0x4>
 5f4:	90 93 89 00 	sts	0x0089, r25	; 0x800089 <TaskQueue+0x7>
 5f8:	80 93 88 00 	sts	0x0088, r24	; 0x800088 <TaskQueue+0x6>
 5fc:	90 93 8b 00 	sts	0x008B, r25	; 0x80008b <TaskQueue+0x9>
 600:	80 93 8a 00 	sts	0x008A, r24	; 0x80008a <TaskQueue+0x8>
 604:	90 93 8d 00 	sts	0x008D, r25	; 0x80008d <TaskQueue+0xb>
 608:	80 93 8c 00 	sts	0x008C, r24	; 0x80008c <TaskQueue+0xa>
 60c:	80 e0       	ldi	r24, 0x00	; 0
 60e:	90 e0       	ldi	r25, 0x00	; 0
	}


	for(index = 0; index != MAX_TIMERS_COUNT + 1; index++) // Resetting all timers
	{
		MainTimer[index].GoToTask = Idle;
 610:	2b ed       	ldi	r18, 0xDB	; 219
 612:	32 e0       	ldi	r19, 0x02	; 2
 614:	fc 01       	movw	r30, r24
 616:	ee 0f       	add	r30, r30
 618:	ff 1f       	adc	r31, r31
 61a:	ee 0f       	add	r30, r30
 61c:	ff 1f       	adc	r31, r31
 61e:	e6 59       	subi	r30, 0x96	; 150
 620:	ff 4f       	sbci	r31, 0xFF	; 255
 622:	31 83       	std	Z+1, r19	; 0x01
 624:	20 83       	st	Z, r18
		MainTimer[index].TimeToStart = 0;
 626:	13 82       	std	Z+3, r1	; 0x03
 628:	12 82       	std	Z+2, r1	; 0x02
 62a:	01 96       	adiw	r24, 0x01	; 1
	{
		TaskQueue[index] = Idle;
	}


	for(index = 0; index != MAX_TIMERS_COUNT + 1; index++) // Resetting all timers
 62c:	86 30       	cpi	r24, 0x06	; 6
 62e:	91 05       	cpc	r25, r1
 630:	89 f7       	brne	.-30     	; 0x614 <rtos_init+0x3c>
	{
		MainTimer[index].GoToTask = Idle;
		MainTimer[index].TimeToStart = 0;
	}
	
	rtos_timer_setup();
 632:	c2 cf       	rjmp	.-124    	; 0x5b8 <rtos_timer_setup>

00000634 <AddTask>:
}


// Add task to queue (ex. SetTask(Task1))
void AddTask(TPTR TS)
{
 634:	ac 01       	movw	r20, r24
	ATOMIC_BLOCK(ATOMIC_RESTORESTATE)
 636:	2f b7       	in	r18, 0x3f	; 63
    return 1;
}

static __inline__ uint8_t __iCliRetVal(void)
{
    cli();
 638:	f8 94       	cli
 63a:	90 e0       	ldi	r25, 0x00	; 0
	{
		uint8_t		index = 0;
		
		// Search for free place to new task
		while(TaskQueue[index] != Idle) 			
 63c:	e9 2f       	mov	r30, r25
 63e:	f0 e0       	ldi	r31, 0x00	; 0
 640:	ee 0f       	add	r30, r30
 642:	ff 1f       	adc	r31, r31
 644:	ee 57       	subi	r30, 0x7E	; 126
 646:	ff 4f       	sbci	r31, 0xFF	; 255
 648:	60 81       	ld	r22, Z
 64a:	71 81       	ldd	r23, Z+1	; 0x01
 64c:	6b 5d       	subi	r22, 0xDB	; 219
 64e:	72 40       	sbci	r23, 0x02	; 2
 650:	11 f0       	breq	.+4      	; 0x656 <AddTask+0x22>
		{									
			index++;
 652:	9f 5f       	subi	r25, 0xFF	; 255
 654:	f3 cf       	rjmp	.-26     	; 0x63c <AddTask+0x8>
		}
		
		// If found then place task into queue. Else return
		if (index != MAX_TASKS_COUNT + 1)
 656:	96 30       	cpi	r25, 0x06	; 6
 658:	11 f0       	breq	.+4      	; 0x65e <AddTask+0x2a>
		{
			TaskQueue[index] = TS;
 65a:	51 83       	std	Z+1, r21	; 0x01
 65c:	40 83       	st	Z, r20
    (void)__s;
}

static __inline__ void __iRestore(const  uint8_t *__s)
{
    SREG = *__s;
 65e:	2f bf       	out	0x3f, r18	; 63
    __asm__ volatile ("" ::: "memory");
 660:	08 95       	ret

00000662 <AddTimerTask>:
//}

// Adds timer task. Example: SetTimerTask(Task1, Time_In_Intervals_of_TimerService
void AddTimerTask(TPTR TS, uint16_t NewTime_ms, bool update_if_exist)
{
	if (NewTime_ms == 0)
 662:	61 15       	cp	r22, r1
 664:	71 05       	cpc	r23, r1
 666:	09 f4       	brne	.+2      	; 0x66a <AddTimerTask+0x8>
	{
		AddTask(TS);
 668:	e5 cf       	rjmp	.-54     	; 0x634 <AddTask>
		return;
	}
	
	uint8_t		index=0;
	
	ATOMIC_BLOCK(ATOMIC_RESTORESTATE)
 66a:	af b7       	in	r26, 0x3f	; 63
    return 1;
}

static __inline__ uint8_t __iCliRetVal(void)
{
    cli();
 66c:	f8 94       	cli
 66e:	20 e0       	ldi	r18, 0x00	; 0
 670:	30 e0       	ldi	r19, 0x00	; 0
	{
		if (update_if_exist)
 672:	44 23       	and	r20, r20
 674:	99 f0       	breq	.+38     	; 0x69c <AddTimerTask+0x3a>
		{
			// Update TimeToStart if the task already in queue
			for(index = 0; index != MAX_TIMERS_COUNT + 1; ++index)
			{
				if(MainTimer[index].GoToTask == TS)
 676:	f9 01       	movw	r30, r18
 678:	ee 0f       	add	r30, r30
 67a:	ff 1f       	adc	r31, r31
 67c:	ee 0f       	add	r30, r30
 67e:	ff 1f       	adc	r31, r31
 680:	e6 59       	subi	r30, 0x96	; 150
 682:	ff 4f       	sbci	r31, 0xFF	; 255
 684:	40 81       	ld	r20, Z
 686:	51 81       	ldd	r21, Z+1	; 0x01
 688:	48 17       	cp	r20, r24
 68a:	59 07       	cpc	r21, r25
 68c:	a9 f0       	breq	.+42     	; 0x6b8 <AddTimerTask+0x56>
 68e:	2f 5f       	subi	r18, 0xFF	; 255
 690:	3f 4f       	sbci	r19, 0xFF	; 255
	ATOMIC_BLOCK(ATOMIC_RESTORESTATE)
	{
		if (update_if_exist)
		{
			// Update TimeToStart if the task already in queue
			for(index = 0; index != MAX_TIMERS_COUNT + 1; ++index)
 692:	26 30       	cpi	r18, 0x06	; 6
 694:	31 05       	cpc	r19, r1
 696:	79 f7       	brne	.-34     	; 0x676 <AddTimerTask+0x14>
 698:	20 e0       	ldi	r18, 0x00	; 0
 69a:	30 e0       	ldi	r19, 0x00	; 0
		
	
		// Add timer if not in queue
		for(index = 0; index != MAX_TIMERS_COUNT + 1; ++index)	// Find empty timer
		{
			if (MainTimer[index].GoToTask == Idle)
 69c:	f9 01       	movw	r30, r18
 69e:	ee 0f       	add	r30, r30
 6a0:	ff 1f       	adc	r31, r31
 6a2:	ee 0f       	add	r30, r30
 6a4:	ff 1f       	adc	r31, r31
 6a6:	e6 59       	subi	r30, 0x96	; 150
 6a8:	ff 4f       	sbci	r31, 0xFF	; 255
 6aa:	40 81       	ld	r20, Z
 6ac:	51 81       	ldd	r21, Z+1	; 0x01
 6ae:	4b 5d       	subi	r20, 0xDB	; 219
 6b0:	52 40       	sbci	r21, 0x02	; 2
 6b2:	39 f4       	brne	.+14     	; 0x6c2 <AddTimerTask+0x60>
			{
				MainTimer[index].GoToTask		= TS;
 6b4:	91 83       	std	Z+1, r25	; 0x01
 6b6:	80 83       	st	Z, r24
				MainTimer[index].TimeToStart	= NewTime_ms - 1;
 6b8:	61 50       	subi	r22, 0x01	; 1
 6ba:	71 09       	sbc	r23, r1
 6bc:	73 83       	std	Z+3, r23	; 0x03
 6be:	62 83       	std	Z+2, r22	; 0x02
				return;
 6c0:	05 c0       	rjmp	.+10     	; 0x6cc <AddTimerTask+0x6a>
 6c2:	2f 5f       	subi	r18, 0xFF	; 255
 6c4:	3f 4f       	sbci	r19, 0xFF	; 255
			}
		}
		
	
		// Add timer if not in queue
		for(index = 0; index != MAX_TIMERS_COUNT + 1; ++index)	// Find empty timer
 6c6:	26 30       	cpi	r18, 0x06	; 6
 6c8:	31 05       	cpc	r19, r1
 6ca:	41 f7       	brne	.-48     	; 0x69c <AddTimerTask+0x3a>
    (void)__s;
}

static __inline__ void __iRestore(const  uint8_t *__s)
{
    SREG = *__s;
 6cc:	af bf       	out	0x3f, r26	; 63
    __asm__ volatile ("" ::: "memory");
 6ce:	08 95       	ret

000006d0 <TaskManager>:
/*=================================================================================
	TaskManager gets task in the head and runs it
*/

inline void TaskManager(void)
{
 6d0:	cf 93       	push	r28
 6d2:	df 93       	push	r29
	uint8_t		index = 0;
	TPTR		GoToTask = Idle;
	
	ATOMIC_BLOCK(ATOMIC_RESTORESTATE)
 6d4:	2f b7       	in	r18, 0x3f	; 63
    return 1;
}

static __inline__ uint8_t __iCliRetVal(void)
{
    cli();
 6d6:	f8 94       	cli
	{
		GoToTask = TaskQueue[0];				// Take first task in queue
 6d8:	e0 91 82 00 	lds	r30, 0x0082	; 0x800082 <TaskQueue>
 6dc:	f0 91 83 00 	lds	r31, 0x0083	; 0x800083 <TaskQueue+0x1>

		if (GoToTask != Idle)
 6e0:	82 e0       	ldi	r24, 0x02	; 2
 6e2:	eb 3d       	cpi	r30, 0xDB	; 219
 6e4:	f8 07       	cpc	r31, r24
 6e6:	d9 f0       	breq	.+54     	; 0x71e <TaskManager+0x4e>
 6e8:	80 e0       	ldi	r24, 0x00	; 0
 6ea:	90 e0       	ldi	r25, 0x00	; 0
		{
			// Remove current task from queue
			for(index = 0; index != MAX_TASKS_COUNT; index++)
			{
				TaskQueue[index] = TaskQueue[index + 1];
 6ec:	dc 01       	movw	r26, r24
 6ee:	01 96       	adiw	r24, 0x01	; 1
 6f0:	ec 01       	movw	r28, r24
 6f2:	cc 0f       	add	r28, r28
 6f4:	dd 1f       	adc	r29, r29
 6f6:	ce 57       	subi	r28, 0x7E	; 126
 6f8:	df 4f       	sbci	r29, 0xFF	; 255
 6fa:	48 81       	ld	r20, Y
 6fc:	59 81       	ldd	r21, Y+1	; 0x01
 6fe:	aa 0f       	add	r26, r26
 700:	bb 1f       	adc	r27, r27
 702:	ae 57       	subi	r26, 0x7E	; 126
 704:	bf 4f       	sbci	r27, 0xFF	; 255
 706:	11 96       	adiw	r26, 0x01	; 1
 708:	5c 93       	st	X, r21
 70a:	4e 93       	st	-X, r20
		GoToTask = TaskQueue[0];				// Take first task in queue

		if (GoToTask != Idle)
		{
			// Remove current task from queue
			for(index = 0; index != MAX_TASKS_COUNT; index++)
 70c:	85 30       	cpi	r24, 0x05	; 5
 70e:	91 05       	cpc	r25, r1
 710:	69 f7       	brne	.-38     	; 0x6ec <TaskManager+0x1c>
			{
				TaskQueue[index] = TaskQueue[index + 1];
			}

			TaskQueue[MAX_TASKS_COUNT] = Idle;	// Idle in the tail
 712:	8b ed       	ldi	r24, 0xDB	; 219
 714:	92 e0       	ldi	r25, 0x02	; 2
 716:	90 93 8d 00 	sts	0x008D, r25	; 0x80008d <TaskQueue+0xb>
 71a:	80 93 8c 00 	sts	0x008C, r24	; 0x80008c <TaskQueue+0xa>
    (void)__s;
}

static __inline__ void __iRestore(const  uint8_t *__s)
{
    SREG = *__s;
 71e:	2f bf       	out	0x3f, r18	; 63
		}
	}
	
	(GoToTask)();								// Run task	
}
 720:	df 91       	pop	r29
 722:	cf 91       	pop	r28

			TaskQueue[MAX_TASKS_COUNT] = Idle;	// Idle in the tail
		}
	}
	
	(GoToTask)();								// Run task	
 724:	09 94       	ijmp

00000726 <TimerService>:
/*
Timers Service
If executing not from interrupt ATOMIC_BLOCK required
*/
inline void TimerService(void)
{
 726:	ef 92       	push	r14
 728:	ff 92       	push	r15
 72a:	0f 93       	push	r16
 72c:	1f 93       	push	r17
 72e:	cf 93       	push	r28
 730:	df 93       	push	r29
 732:	00 e0       	ldi	r16, 0x00	; 0
 734:	10 e0       	ldi	r17, 0x00	; 0
			MainTimer[index].TimeToStart--;
		}
		else
		{
			AddTask(MainTimer[index].GoToTask);
			MainTimer[index].GoToTask = Idle;
 736:	9b ed       	ldi	r25, 0xDB	; 219
 738:	e9 2e       	mov	r14, r25
 73a:	92 e0       	ldi	r25, 0x02	; 2
 73c:	f9 2e       	mov	r15, r25
{
	uint8_t index;

	for(index=0; index != MAX_TIMERS_COUNT + 1; index++)
	{
		if(MainTimer[index].GoToTask == Idle) continue;
 73e:	e8 01       	movw	r28, r16
 740:	cc 0f       	add	r28, r28
 742:	dd 1f       	adc	r29, r29
 744:	cc 0f       	add	r28, r28
 746:	dd 1f       	adc	r29, r29
 748:	c6 59       	subi	r28, 0x96	; 150
 74a:	df 4f       	sbci	r29, 0xFF	; 255
 74c:	88 81       	ld	r24, Y
 74e:	99 81       	ldd	r25, Y+1	; 0x01
 750:	8b 5d       	subi	r24, 0xDB	; 219
 752:	92 40       	sbci	r25, 0x02	; 2
 754:	79 f0       	breq	.+30     	; 0x774 <TimerService+0x4e>

		if(MainTimer[index].TimeToStart != 0)	// To Do: Вычислить по тактам, что лучше !=1 или !=0.
 756:	8a 81       	ldd	r24, Y+2	; 0x02
 758:	9b 81       	ldd	r25, Y+3	; 0x03
 75a:	89 2b       	or	r24, r25
 75c:	31 f0       	breq	.+12     	; 0x76a <TimerService+0x44>
		{
			MainTimer[index].TimeToStart--;
 75e:	8a 81       	ldd	r24, Y+2	; 0x02
 760:	9b 81       	ldd	r25, Y+3	; 0x03
 762:	01 97       	sbiw	r24, 0x01	; 1
 764:	9b 83       	std	Y+3, r25	; 0x03
 766:	8a 83       	std	Y+2, r24	; 0x02
 768:	05 c0       	rjmp	.+10     	; 0x774 <TimerService+0x4e>
		}
		else
		{
			AddTask(MainTimer[index].GoToTask);
 76a:	88 81       	ld	r24, Y
 76c:	99 81       	ldd	r25, Y+1	; 0x01
 76e:	62 df       	rcall	.-316    	; 0x634 <AddTask>
			MainTimer[index].GoToTask = Idle;
 770:	f9 82       	std	Y+1, r15	; 0x01
 772:	e8 82       	st	Y, r14
 774:	0f 5f       	subi	r16, 0xFF	; 255
 776:	1f 4f       	sbci	r17, 0xFF	; 255
*/
inline void TimerService(void)
{
	uint8_t index;

	for(index=0; index != MAX_TIMERS_COUNT + 1; index++)
 778:	06 30       	cpi	r16, 0x06	; 6
 77a:	11 05       	cpc	r17, r1
 77c:	01 f7       	brne	.-64     	; 0x73e <TimerService+0x18>
		{
			AddTask(MainTimer[index].GoToTask);
			MainTimer[index].GoToTask = Idle;
		}
	}
}
 77e:	df 91       	pop	r29
 780:	cf 91       	pop	r28
 782:	1f 91       	pop	r17
 784:	0f 91       	pop	r16
 786:	ff 90       	pop	r15
 788:	ef 90       	pop	r14
 78a:	08 95       	ret

0000078c <__mulhi3>:
 78c:	00 24       	eor	r0, r0
 78e:	55 27       	eor	r21, r21
 790:	04 c0       	rjmp	.+8      	; 0x79a <__mulhi3+0xe>
 792:	08 0e       	add	r0, r24
 794:	59 1f       	adc	r21, r25
 796:	88 0f       	add	r24, r24
 798:	99 1f       	adc	r25, r25
 79a:	00 97       	sbiw	r24, 0x00	; 0
 79c:	29 f0       	breq	.+10     	; 0x7a8 <__mulhi3+0x1c>
 79e:	76 95       	lsr	r23
 7a0:	67 95       	ror	r22
 7a2:	b8 f3       	brcs	.-18     	; 0x792 <__mulhi3+0x6>
 7a4:	71 05       	cpc	r23, r1
 7a6:	b9 f7       	brne	.-18     	; 0x796 <__mulhi3+0xa>
 7a8:	80 2d       	mov	r24, r0
 7aa:	95 2f       	mov	r25, r21
 7ac:	08 95       	ret

000007ae <eeprom_read_word>:
 7ae:	a8 e1       	ldi	r26, 0x18	; 24
 7b0:	42 e0       	ldi	r20, 0x02	; 2
 7b2:	05 c0       	rjmp	.+10     	; 0x7be <eeprom_read_blraw>

000007b4 <eeprom_write_word>:
 7b4:	10 d0       	rcall	.+32     	; 0x7d6 <eeprom_write_byte>
 7b6:	27 2f       	mov	r18, r23
 7b8:	0f c0       	rjmp	.+30     	; 0x7d8 <eeprom_write_r18>

000007ba <eeprom_read_block>:
 7ba:	a8 2f       	mov	r26, r24
 7bc:	86 2f       	mov	r24, r22

000007be <eeprom_read_blraw>:
 7be:	e8 2f       	mov	r30, r24
 7c0:	e1 99       	sbic	0x1c, 1	; 28
 7c2:	fe cf       	rjmp	.-4      	; 0x7c0 <eeprom_read_blraw+0x2>
 7c4:	05 c0       	rjmp	.+10     	; 0x7d0 <eeprom_read_blraw+0x12>
 7c6:	ee bb       	out	0x1e, r30	; 30
 7c8:	e0 9a       	sbi	0x1c, 0	; 28
 7ca:	e3 95       	inc	r30
 7cc:	0d b2       	in	r0, 0x1d	; 29
 7ce:	0d 92       	st	X+, r0
 7d0:	41 50       	subi	r20, 0x01	; 1
 7d2:	c8 f7       	brcc	.-14     	; 0x7c6 <eeprom_read_blraw+0x8>
 7d4:	08 95       	ret

000007d6 <eeprom_write_byte>:
 7d6:	26 2f       	mov	r18, r22

000007d8 <eeprom_write_r18>:
 7d8:	e1 99       	sbic	0x1c, 1	; 28
 7da:	fe cf       	rjmp	.-4      	; 0x7d8 <eeprom_write_r18>
 7dc:	1c ba       	out	0x1c, r1	; 28
 7de:	8e bb       	out	0x1e, r24	; 30
 7e0:	2d bb       	out	0x1d, r18	; 29
 7e2:	0f b6       	in	r0, 0x3f	; 63
 7e4:	f8 94       	cli
 7e6:	e2 9a       	sbi	0x1c, 2	; 28
 7e8:	e1 9a       	sbi	0x1c, 1	; 28
 7ea:	0f be       	out	0x3f, r0	; 63
 7ec:	01 96       	adiw	r24, 0x01	; 1
 7ee:	08 95       	ret

000007f0 <_exit>:
 7f0:	f8 94       	cli

000007f2 <__stop_program>:
 7f2:	ff cf       	rjmp	.-2      	; 0x7f2 <__stop_program>
